target datalayout = "e-m:e-p270:32:32-p271:32:32-p272:64:64-i64:64-i128:128-f80:128-n8:16:32:64-S128"
target triple = "x86_64-pc-linux-gnu"

; Function Attrs: nounwind uwtable
define i32 @wc_InitMutex(ptr noundef %0) #0 {
  %2 = alloca i32, align 4
  %3 = alloca ptr, align 8
  store ptr %0, ptr %3, align 8, !tbaa !14
  %4 = load ptr, ptr %3, align 8, !tbaa !14
  %5 = call i32 @pthread_mutex_init(ptr noundef %4, ptr noundef null) #7
  %6 = icmp eq i32 %5, 0
  br i1 %6, label %7, label %8

7:                                                ; preds = %1
  store i32 0, ptr %2, align 4
  br label %9

8:                                                ; preds = %1
  store i32 -106, ptr %2, align 4
  br label %9

9:                                                ; preds = %8, %7
  %10 = load i32, ptr %2, align 4
  ret i32 %10
}

; Function Attrs: nounwind uwtable
define ptr @wc_InitAndAllocMutex() #0 {
  %1 = alloca ptr, align 8
  %2 = alloca ptr, align 8
  call void @llvm.lifetime.start.p0(i64 8, ptr %1) #7
  %3 = call ptr @wolfSSL_Malloc(i64 noundef 40)
  store ptr %3, ptr %1, align 8, !tbaa !14
  %4 = load ptr, ptr %1, align 8, !tbaa !14
  %5 = icmp ne ptr %4, null
  br i1 %5, label %6, label %24

6:                                                ; preds = %0
  %7 = load ptr, ptr %1, align 8, !tbaa !14
  %8 = call i32 @wc_InitMutex(ptr noundef %7)
  %9 = icmp ne i32 %8, 0
  br i1 %9, label %10, label %23

10:                                               ; preds = %6
  br label %11

11:                                               ; preds = %10
  br label %12

12:                                               ; preds = %11
  br label %13

13:                                               ; preds = %12
  br label %14

14:                                               ; preds = %13
  call void @llvm.lifetime.start.p0(i64 8, ptr %2) #7
  %15 = load ptr, ptr %1, align 8, !tbaa !14
  store ptr %15, ptr %2, align 8, !tbaa !14
  %16 = load ptr, ptr %2, align 8, !tbaa !14
  %17 = icmp ne ptr %16, null
  br i1 %17, label %18, label %20

18:                                               ; preds = %14
  %19 = load ptr, ptr %2, align 8, !tbaa !14
  call void @wolfSSL_Free(ptr noundef %19)
  br label %20

20:                                               ; preds = %18, %14
  call void @llvm.lifetime.end.p0(i64 8, ptr %2) #7
  br label %21

21:                                               ; preds = %20
  br label %22

22:                                               ; preds = %21
  store ptr null, ptr %1, align 8, !tbaa !14
  br label %23

23:                                               ; preds = %22, %6
  br label %28

24:                                               ; preds = %0
  br label %25

25:                                               ; preds = %24
  br label %26

26:                                               ; preds = %25
  br label %27

27:                                               ; preds = %26
  br label %28

28:                                               ; preds = %27, %23
  %29 = load ptr, ptr %1, align 8, !tbaa !14
  call void @llvm.lifetime.end.p0(i64 8, ptr %1) #7
  ret ptr %29
}