; Function Attrs: nounwind uwtable
define ptr @wc_InitAndAllocMutex() local_unnamed_addr #2 {
  %1 = tail call ptr @wolfSSL_Malloc(i64 noundef 40) #16
  %.not = icmp eq ptr %1, null
  br i1 %.not, label %6, label %2

2:                                                ; preds = %0
  %3 = tail call i32 @pthread_mutex_init(ptr noundef nonnull %1, ptr noundef null) #16
  %4 = icmp eq i32 %3, 0
  br i1 %4, label %6, label %5

5:                                                ; preds = %2
  tail call void @wolfSSL_Free(ptr noundef nonnull %1) #16
  br label %6

6:                                                ; preds = %0, %2, %5
  %.0 = phi ptr [ null, %5 ], [ %1, %2 ], [ null, %0 ]
  ret ptr %.0
}